target datalayout = "e-m:e-p270:32:32-p271:32:32-p272:64:64-i64:64-i128:128-f80:128-n8:16:32:64-S128"
target triple = "x86_64-pc-linux-gnu"

%struct.pkcs7_signer_info_st = type { ptr, ptr, ptr, ptr, ptr, ptr, ptr, ptr, ptr }

; Function Attrs: nounwind uwtable
define void @PKCS7_SIGNER_INFO_get0_algs(ptr noundef %0, ptr noundef %1, ptr noundef %2, ptr noundef %3) #0 {
  %5 = alloca ptr, align 8
  %6 = alloca ptr, align 8
  %7 = alloca ptr, align 8
  %8 = alloca ptr, align 8
  store ptr %0, ptr %5, align 8, !tbaa !52
  store ptr %1, ptr %6, align 8, !tbaa !124
  store ptr %2, ptr %7, align 8, !tbaa !126
  store ptr %3, ptr %8, align 8, !tbaa !126
  %9 = load ptr, ptr %6, align 8, !tbaa !124
  %10 = icmp ne ptr %9, null
  br i1 %10, label %11, label %16

11:                                               ; preds = %4
  %12 = load ptr, ptr %5, align 8, !tbaa !52
  %13 = getelementptr inbounds nuw %struct.pkcs7_signer_info_st, ptr %12, i32 0, i32 7
  %14 = load ptr, ptr %13, align 8, !tbaa !91
  %15 = load ptr, ptr %6, align 8, !tbaa !124
  store ptr %14, ptr %15, align 8, !tbaa !83
  br label %16

16:                                               ; preds = %11, %4
  %17 = load ptr, ptr %7, align 8, !tbaa !126
  %18 = icmp ne ptr %17, null
  br i1 %18, label %19, label %24

19:                                               ; preds = %16
  %20 = load ptr, ptr %5, align 8, !tbaa !52
  %21 = getelementptr inbounds nuw %struct.pkcs7_signer_info_st, ptr %20, i32 0, i32 2
  %22 = load ptr, ptr %21, align 8, !tbaa !60
  %23 = load ptr, ptr %7, align 8, !tbaa !126
  store ptr %22, ptr %23, align 8, !tbaa !67
  br label %24

24:                                               ; preds = %19, %16
  %25 = load ptr, ptr %8, align 8, !tbaa !126
  %26 = icmp ne ptr %25, null
  br i1 %26, label %27, label %32

27:                                               ; preds = %24
  %28 = load ptr, ptr %5, align 8, !tbaa !52
  %29 = getelementptr inbounds nuw %struct.pkcs7_signer_info_st, ptr %28, i32 0, i32 4
  %30 = load ptr, ptr %29, align 8, !tbaa !128
  %31 = load ptr, ptr %8, align 8, !tbaa !126
  store ptr %30, ptr %31, align 8, !tbaa !67
  br label %32

32:                                               ; preds = %27, %24
  ret void
}

; Function Attrs: nounwind uwtable
define internal i32 @pkcs7_rsa_sign_verify_setup(ptr noundef %0, i32 noundef %1) #0 {
  %3 = alloca i32, align 4
  %4 = alloca ptr, align 8
  %5 = alloca i32, align 4
  %6 = alloca ptr, align 8
  %7 = alloca i32, align 4
  store ptr %0, ptr %4, align 8, !tbaa !52
  store i32 %1, ptr %5, align 4, !tbaa !8
  %8 = load i32, ptr %5, align 4, !tbaa !8
  %9 = icmp ne i32 %8, 0
  br i1 %9, label %22, label %10

10:                                               ; preds = %2
  call void @llvm.lifetime.start.p0(i64 8, ptr %6) #4
  store ptr null, ptr %6, align 8, !tbaa !67
  %11 = load ptr, ptr %4, align 8, !tbaa !52
  call void @PKCS7_SIGNER_INFO_get0_algs(ptr noundef %11, ptr noundef null, ptr noundef null, ptr noundef %6)
  %12 = load ptr, ptr %6, align 8, !tbaa !67
  %13 = icmp ne ptr %12, null
  br i1 %13, label %14, label %18

14:                                               ; preds = %10
  %15 = load ptr, ptr %6, align 8, !tbaa !67
  %16 = call ptr @OBJ_nid2obj(i32 noundef 6)
  %17 = call i32 @X509_ALGOR_set0(ptr noundef %15, ptr noundef %16, i32 noundef 5, ptr noundef null)
  store i32 %17, ptr %3, align 4
  store i32 1, ptr %7, align 4
  br label %19

18:                                               ; preds = %10
  store i32 0, ptr %7, align 4
  br label %19

19:                                               ; preds = %18, %14
  call void @llvm.lifetime.end.p0(i64 8, ptr %6) #4
  %20 = load i32, ptr %7, align 4
  switch i32 %20, label %25 [
    i32 0, label %21
    i32 1, label %23
  ]

21:                                               ; preds = %19
  br label %22

22:                                               ; preds = %21, %2
  store i32 1, ptr %3, align 4
  br label %23

23:                                               ; preds = %22, %19
  %24 = load i32, ptr %3, align 4
  ret i32 %24

25:                                               ; preds = %19
  unreachable
}