; Function Attrs: nounwind uwtable
define internal fastcc i32 @pkcs7_rsa_sign_verify_setup(ptr %.32.val) unnamed_addr #0 {
  %.not.not = icmp eq ptr %.32.val, null
  br i1 %.not.not, label %4, label %1

1:                                                ; preds = %0
  %2 = tail call ptr @OBJ_nid2obj(i32 noundef 6) #7
  %3 = tail call i32 @X509_ALGOR_set0(ptr noundef nonnull %.32.val, ptr noundef %2, i32 noundef 5, ptr noundef null) #7
  br label %4

4:                                                ; preds = %0, %1
  %spec.select = phi i32 [ %3, %1 ], [ 1, %0 ]
  ret i32 %spec.select
}